#include <math.h>
#include <stdio.h>
#include <stdlib.h>
#include <string.h>

int main()
{
	int a,b,i,j,matrix[100][100];
	scanf("%d%d",&a,&b);
	for(i=0;i<a;i++)
	{
		for(j=0;j<b;j++)
		{
			scanf("%d",&matrix[i][j]);
			getchar();
		}
	}
	while(a>0&&b>0)
	{
		for(i=0;i<b;i++)
			printf("%d\n",matrix[0][i]);
		for(i=1;i<a;i++)
			printf("%d\n",matrix[i][b-1]);
		if(b>1&&a>1)
		{
			for(i=b-2;i>=0;i--)
				printf("%d\n",matrix[a-1][i]);
			for(i=a-2;i>=1;i--)
				printf("%d\n",matrix[i][0]);
		}
		for(i=0;i<a-2;i++)
		{
			for(j=0;j<b-2;j++)
				matrix[i][j]=matrix[i+1][j+1];
		}
		a=a-2;
		b=b-2;
	}
	return 0;
}