; ModuleID = '46/2275.c'
source_filename = "46/2275.c"
target datalayout = "e-m:e-p270:32:32-p271:32:32-p272:64:64-i64:64-f80:128-n8:16:32:64-S128"
target triple = "x86_64-pc-linux-gnu"

@.str = private unnamed_addr constant [5 x i8] c"%d%d\00", align 1
@.str.1 = private unnamed_addr constant [3 x i8] c"%d\00", align 1
@.str.2 = private unnamed_addr constant [4 x i8] c"%d\0A\00", align 1

; Function Attrs: noinline nounwind uwtable
define dso_local i32 @main() #0 {
  %1 = alloca i32, align 4
  %2 = alloca i32, align 4
  %3 = alloca i32, align 4
  %4 = alloca i32, align 4
  %5 = alloca i32, align 4
  %6 = alloca [100 x [100 x i32]], align 16
  store i32 0, i32* %1, align 4
  %7 = call i32 (i8*, ...) @__isoc99_scanf(i8* getelementptr inbounds ([5 x i8], [5 x i8]* @.str, i64 0, i64 0), i32* %2, i32* %3)
  store i32 0, i32* %4, align 4
  br label %8

8:                                                ; preds = %30, %0
  %9 = load i32, i32* %4, align 4
  %10 = load i32, i32* %2, align 4
  %11 = icmp slt i32 %9, %10
  br i1 %11, label %12, label %33

12:                                               ; preds = %8
  store i32 0, i32* %5, align 4
  br label %13

13:                                               ; preds = %26, %12
  %14 = load i32, i32* %5, align 4
  %15 = load i32, i32* %3, align 4
  %16 = icmp slt i32 %14, %15
  br i1 %16, label %17, label %29

17:                                               ; preds = %13
  %18 = load i32, i32* %4, align 4
  %19 = sext i32 %18 to i64
  %20 = getelementptr inbounds [100 x [100 x i32]], [100 x [100 x i32]]* %6, i64 0, i64 %19
  %21 = load i32, i32* %5, align 4
  %22 = sext i32 %21 to i64
  %23 = getelementptr inbounds [100 x i32], [100 x i32]* %20, i64 0, i64 %22
  %24 = call i32 (i8*, ...) @__isoc99_scanf(i8* getelementptr inbounds ([3 x i8], [3 x i8]* @.str.1, i64 0, i64 0), i32* %23)
  %25 = call i32 @getchar()
  br label %26

26:                                               ; preds = %17
  %27 = load i32, i32* %5, align 4
  %28 = add nsw i32 %27, 1
  store i32 %28, i32* %5, align 4
  br label %13

29:                                               ; preds = %13
  br label %30

30:                                               ; preds = %29
  %31 = load i32, i32* %4, align 4
  %32 = add nsw i32 %31, 1
  store i32 %32, i32* %4, align 4
  br label %8

33:                                               ; preds = %8
  br label %34

34:                                               ; preds = %152, %33
  %35 = load i32, i32* %2, align 4
  %36 = icmp sgt i32 %35, 0
  br i1 %36, label %37, label %40

37:                                               ; preds = %34
  %38 = load i32, i32* %3, align 4
  %39 = icmp sgt i32 %38, 0
  br label %40

40:                                               ; preds = %37, %34
  %41 = phi i1 [ false, %34 ], [ %39, %37 ]
  br i1 %41, label %42, label %157

42:                                               ; preds = %40
  store i32 0, i32* %4, align 4
  br label %43

43:                                               ; preds = %54, %42
  %44 = load i32, i32* %4, align 4
  %45 = load i32, i32* %3, align 4
  %46 = icmp slt i32 %44, %45
  br i1 %46, label %47, label %57

47:                                               ; preds = %43
  %48 = getelementptr inbounds [100 x [100 x i32]], [100 x [100 x i32]]* %6, i64 0, i64 0
  %49 = load i32, i32* %4, align 4
  %50 = sext i32 %49 to i64
  %51 = getelementptr inbounds [100 x i32], [100 x i32]* %48, i64 0, i64 %50
  %52 = load i32, i32* %51, align 4
  %53 = call i32 (i8*, ...) @printf(i8* getelementptr inbounds ([4 x i8], [4 x i8]* @.str.2, i64 0, i64 0), i32 %52)
  br label %54

54:                                               ; preds = %47
  %55 = load i32, i32* %4, align 4
  %56 = add nsw i32 %55, 1
  store i32 %56, i32* %4, align 4
  br label %43

57:                                               ; preds = %43
  store i32 1, i32* %4, align 4
  br label %58

58:                                               ; preds = %72, %57
  %59 = load i32, i32* %4, align 4
  %60 = load i32, i32* %2, align 4
  %61 = icmp slt i32 %59, %60
  br i1 %61, label %62, label %75

62:                                               ; preds = %58
  %63 = load i32, i32* %4, align 4
  %64 = sext i32 %63 to i64
  %65 = getelementptr inbounds [100 x [100 x i32]], [100 x [100 x i32]]* %6, i64 0, i64 %64
  %66 = load i32, i32* %3, align 4
  %67 = sub nsw i32 %66, 1
  %68 = sext i32 %67 to i64
  %69 = getelementptr inbounds [100 x i32], [100 x i32]* %65, i64 0, i64 %68
  %70 = load i32, i32* %69, align 4
  %71 = call i32 (i8*, ...) @printf(i8* getelementptr inbounds ([4 x i8], [4 x i8]* @.str.2, i64 0, i64 0), i32 %70)
  br label %72

72:                                               ; preds = %62
  %73 = load i32, i32* %4, align 4
  %74 = add nsw i32 %73, 1
  store i32 %74, i32* %4, align 4
  br label %58

75:                                               ; preds = %58
  %76 = load i32, i32* %3, align 4
  %77 = icmp sgt i32 %76, 1
  br i1 %77, label %78, label %117

78:                                               ; preds = %75
  %79 = load i32, i32* %2, align 4
  %80 = icmp sgt i32 %79, 1
  br i1 %80, label %81, label %117

81:                                               ; preds = %78
  %82 = load i32, i32* %3, align 4
  %83 = sub nsw i32 %82, 2
  store i32 %83, i32* %4, align 4
  br label %84

84:                                               ; preds = %97, %81
  %85 = load i32, i32* %4, align 4
  %86 = icmp sge i32 %85, 0
  br i1 %86, label %87, label %100

87:                                               ; preds = %84
  %88 = load i32, i32* %2, align 4
  %89 = sub nsw i32 %88, 1
  %90 = sext i32 %89 to i64
  %91 = getelementptr inbounds [100 x [100 x i32]], [100 x [100 x i32]]* %6, i64 0, i64 %90
  %92 = load i32, i32* %4, align 4
  %93 = sext i32 %92 to i64
  %94 = getelementptr inbounds [100 x i32], [100 x i32]* %91, i64 0, i64 %93
  %95 = load i32, i32* %94, align 4
  %96 = call i32 (i8*, ...) @printf(i8* getelementptr inbounds ([4 x i8], [4 x i8]* @.str.2, i64 0, i64 0), i32 %95)
  br label %97

97:                                               ; preds = %87
  %98 = load i32, i32* %4, align 4
  %99 = add nsw i32 %98, -1
  store i32 %99, i32* %4, align 4
  br label %84

100:                                              ; preds = %84
  %101 = load i32, i32* %2, align 4
  %102 = sub nsw i32 %101, 2
  store i32 %102, i32* %4, align 4
  br label %103

103:                                              ; preds = %113, %100
  %104 = load i32, i32* %4, align 4
  %105 = icmp sge i32 %104, 1
  br i1 %105, label %106, label %116

106:                                              ; preds = %103
  %107 = load i32, i32* %4, align 4
  %108 = sext i32 %107 to i64
  %109 = getelementptr inbounds [100 x [100 x i32]], [100 x [100 x i32]]* %6, i64 0, i64 %108
  %110 = getelementptr inbounds [100 x i32], [100 x i32]* %109, i64 0, i64 0
  %111 = load i32, i32* %110, align 16
  %112 = call i32 (i8*, ...) @printf(i8* getelementptr inbounds ([4 x i8], [4 x i8]* @.str.2, i64 0, i64 0), i32 %111)
  br label %113

113:                                              ; preds = %106
  %114 = load i32, i32* %4, align 4
  %115 = add nsw i32 %114, -1
  store i32 %115, i32* %4, align 4
  br label %103

116:                                              ; preds = %103
  br label %117

117:                                              ; preds = %116, %78, %75
  store i32 0, i32* %4, align 4
  br label %118

118:                                              ; preds = %149, %117
  %119 = load i32, i32* %4, align 4
  %120 = load i32, i32* %2, align 4
  %121 = sub nsw i32 %120, 2
  %122 = icmp slt i32 %119, %121
  br i1 %122, label %123, label %152

123:                                              ; preds = %118
  store i32 0, i32* %5, align 4
  br label %124

124:                                              ; preds = %145, %123
  %125 = load i32, i32* %5, align 4
  %126 = load i32, i32* %3, align 4
  %127 = sub nsw i32 %126, 2
  %128 = icmp slt i32 %125, %127
  br i1 %128, label %129, label %148

129:                                              ; preds = %124
  %130 = load i32, i32* %4, align 4
  %131 = add nsw i32 %130, 1
  %132 = sext i32 %131 to i64
  %133 = getelementptr inbounds [100 x [100 x i32]], [100 x [100 x i32]]* %6, i64 0, i64 %132
  %134 = load i32, i32* %5, align 4
  %135 = add nsw i32 %134, 1
  %136 = sext i32 %135 to i64
  %137 = getelementptr inbounds [100 x i32], [100 x i32]* %133, i64 0, i64 %136
  %138 = load i32, i32* %137, align 4
  %139 = load i32, i32* %4, align 4
  %140 = sext i32 %139 to i64
  %141 = getelementptr inbounds [100 x [100 x i32]], [100 x [100 x i32]]* %6, i64 0, i64 %140
  %142 = load i32, i32* %5, align 4
  %143 = sext i32 %142 to i64
  %144 = getelementptr inbounds [100 x i32], [100 x i32]* %141, i64 0, i64 %143
  store i32 %138, i32* %144, align 4
  br label %145

145:                                              ; preds = %129
  %146 = load i32, i32* %5, align 4
  %147 = add nsw i32 %146, 1
  store i32 %147, i32* %5, align 4
  br label %124

148:                                              ; preds = %124
  br label %149

149:                                              ; preds = %148
  %150 = load i32, i32* %4, align 4
  %151 = add nsw i32 %150, 1
  store i32 %151, i32* %4, align 4
  br label %118

152:                                              ; preds = %118
  %153 = load i32, i32* %2, align 4
  %154 = sub nsw i32 %153, 2
  store i32 %154, i32* %2, align 4
  %155 = load i32, i32* %3, align 4
  %156 = sub nsw i32 %155, 2
  store i32 %156, i32* %3, align 4
  br label %34

157:                                              ; preds = %40
  ret i32 0
}

declare dso_local i32 @__isoc99_scanf(i8*, ...) #1

declare dso_local i32 @getchar() #1

declare dso_local i32 @printf(i8*, ...) #1


!llvm.module.flags = !{!0}
!llvm.ident = !{!1}

!0 = !{i32 1, !"wchar_size", i32 4}
!1 = !{!"clang version 10.0.0-4ubuntu1 "}
